CCS PCM C Compiler, Version 4.130, 469               24-sept.-15 11:50

               Filename: U:\Mes Documents\Electronique\tp_pic_c\Séance_1\Test_24_09_2015\PORT_B\Test_24_09_2015.lst

               ROM used: 97 words (1%)
                         Largest free fragment is 2048
               RAM used: 9 (3%) at main() level
                         10 (3%) worst case
               Stack:    1 locations

*
0000:  NOP
0001:  MOVLW  00
0002:  MOVWF  0A
0003:  GOTO   012
.................... #include <Test_24_09_2015.h> 
.................... #include <16F876A.h> 
.................... //////// Standard Header file for the PIC16F876A device //////////////// 
.................... #device PIC16F876A 
.................... #list 
....................  
.................... #device ICD=TRUE 
.................... #device adc=16 
....................  
.................... #FUSES NOWDT                    //No Watch Dog Timer 
.................... #FUSES XT                       //Crystal osc <= 4mhz for PCM/PCH , 3mhz to 10 mhz for PCD 
.................... #FUSES PUT                      //Power Up Timer 
.................... #FUSES NOLVP                    //No low voltage prgming, B3(PIC16) or B5(PIC18) used for I/O 
.................... #FUSES DEBUG                    //Debug mode for use with ICD 
....................  
.................... #use delay(clock=2768000) 
0004:  MOVLW  24
0005:  MOVWF  04
0006:  BCF    03.7
0007:  MOVF   00,W
0008:  BTFSC  03.2
0009:  GOTO   011
000A:  MOVLW  E5
000B:  MOVWF  77
000C:  DECFSZ 77,F
000D:  GOTO   00C
000E:  NOP
000F:  DECFSZ 00,F
0010:  GOTO   00A
0011:  RETURN
....................  
.................... #use FIXED_IO( B_outputs=PIN_B5, PIN_B4, PIN_B3, PIN_B2, PIN_B1, PIN_B0) 
.................... #use rs232(baud=9600,parity=N,xmit=PIN_C6,rcv=PIN_C7,bits=8,stream=PORT1) 
....................  
....................  
.................... int LED1; 
.................... int LED2; 
.................... int LED3; 
....................  
.................... void main() 
.................... { 
0012:  CLRF   04
0013:  BCF    03.7
0014:  MOVLW  1F
0015:  ANDWF  03,F
0016:  MOVLW  11
0017:  BSF    03.5
0018:  MOVWF  19
0019:  MOVLW  A6
001A:  MOVWF  18
001B:  MOVLW  90
001C:  BCF    03.5
001D:  MOVWF  18
001E:  BSF    03.5
001F:  BSF    1F.0
0020:  BSF    1F.1
0021:  BSF    1F.2
0022:  BCF    1F.3
0023:  MOVLW  07
0024:  MOVWF  1C
.................... LED1 = 0x01; 
0025:  MOVLW  01
0026:  BCF    03.5
0027:  MOVWF  20
.................... LED2 = 0x02; if (LED1 = 1); 
0028:  MOVLW  02
0029:  MOVWF  21
002A:  MOVLW  01
002B:  MOVWF  20
002C:  MOVF   20,F
002D:  BTFSS  03.2
002E:  GOTO   02F
.................... LED3 = 0x04; if (LED2 = 1); 
002F:  MOVLW  04
0030:  MOVWF  22
0031:  MOVLW  01
0032:  MOVWF  21
0033:  MOVF   21,F
0034:  BTFSS  03.2
0035:  GOTO   036
....................    port_B_pullups(0xFF); 
0036:  BSF    03.5
0037:  BCF    01.7
....................  
....................    while(TRUE) 
....................    { 
....................        Output_b(LED1); 
0038:  MOVLW  C0
0039:  MOVWF  06
003A:  BCF    03.5
003B:  MOVF   20,W
003C:  MOVWF  06
....................        Delay_ms(1000); 
003D:  MOVLW  04
003E:  MOVWF  23
003F:  MOVLW  FA
0040:  MOVWF  24
0041:  CALL   004
0042:  DECFSZ 23,F
0043:  GOTO   03F
....................        Output_b(LED2); 
0044:  MOVLW  C0
0045:  BSF    03.5
0046:  MOVWF  06
0047:  BCF    03.5
0048:  MOVF   21,W
0049:  MOVWF  06
....................        Delay_ms(1000); 
004A:  MOVLW  04
004B:  MOVWF  23
004C:  MOVLW  FA
004D:  MOVWF  24
004E:  CALL   004
004F:  DECFSZ 23,F
0050:  GOTO   04C
....................        Output_b(LED3); 
0051:  MOVLW  C0
0052:  BSF    03.5
0053:  MOVWF  06
0054:  BCF    03.5
0055:  MOVF   22,W
0056:  MOVWF  06
....................        Delay_ms(1000); 
0057:  MOVLW  04
0058:  MOVWF  23
0059:  MOVLW  FA
005A:  MOVWF  24
005B:  CALL   004
005C:  DECFSZ 23,F
005D:  GOTO   059
....................    } 
005E:  BSF    03.5
005F:  GOTO   038
....................     
.................... } 
0060:  GOTO   060

Configuration Fuses:
   Word  1: 3739   XT NOWDT NOPUT NOBROWNOUT NOLVP NOCPD NOWRT DEBUG NOPROTECT

   Some fuses have been forced to be compatible with the ICD debugger.
