CCS PCM C Compiler, Version 4.130, 469               08-oct.-15 10:59

               Filename: U:\Mes Documents\Electronique\tp_pic_c\Séance_2\PCW_Programmes\La_chenille\chenille.lst

               ROM used: 101 words (1%)
                         Largest free fragment is 2048
               RAM used: 7 (2%) at main() level
                         8 (2%) worst case
               Stack:    1 locations

*
0000:  MOVLW  00
0001:  MOVWF  0A
0002:  GOTO   019
0003:  NOP
.................... #include <chenille.h> 
.................... #include <16F876A.h> 
.................... //////// Standard Header file for the PIC16F876A device //////////////// 
.................... #device PIC16F876A 
.................... #list 
....................  
.................... #device adc=16 
....................  
.................... #FUSES NOWDT                    //No Watch Dog Timer 
.................... #FUSES XT                       //Crystal osc <= 4mhz for PCM/PCH , 3mhz to 10 mhz for PCD 
.................... #FUSES NOBROWNOUT               //No brownout reset 
.................... #FUSES NOLVP                    //No low voltage prgming, B3(PIC16) or B5(PIC18) used for I/O 
....................  
.................... #use delay(clock=3276800) 
0004:  MOVLW  22
0005:  MOVWF  04
0006:  BCF    03.7
0007:  MOVF   00,W
0008:  BTFSC  03.2
0009:  GOTO   018
000A:  MOVLW  01
000B:  MOVWF  78
000C:  CLRF   77
000D:  DECFSZ 77,F
000E:  GOTO   00D
000F:  DECFSZ 78,F
0010:  GOTO   00C
0011:  MOVLW  0E
0012:  MOVWF  77
0013:  DECFSZ 77,F
0014:  GOTO   013
0015:  NOP
0016:  DECFSZ 00,F
0017:  GOTO   00A
0018:  RETURN
....................  
....................  
.................... #use FIXED_IO( B_outputs=PIN_B5, PIN_B4, PIN_B3, PIN_B2, PIN_B1, PIN_B0) 
.................... #use rs232(baud=9600,parity=N,xmit=PIN_C6,rcv=PIN_C7,bits=8,stream=PORT1) 
....................  
....................  
.................... int led; 
.................... void main() 
.................... { 
0019:  CLRF   04
001A:  BCF    03.7
001B:  MOVLW  1F
001C:  ANDWF  03,F
001D:  MOVLW  14
001E:  BSF    03.5
001F:  MOVWF  19
0020:  MOVLW  A6
0021:  MOVWF  18
0022:  MOVLW  90
0023:  BCF    03.5
0024:  MOVWF  18
0025:  BSF    03.5
0026:  BSF    1F.0
0027:  BSF    1F.1
0028:  BSF    1F.2
0029:  BCF    1F.3
002A:  MOVLW  07
002B:  MOVWF  1C
....................    port_B_pullups(0xFF); 
002C:  BCF    01.7
....................    While (true) 
....................    { 
....................    led = 0x01; 
002D:  MOVLW  01
002E:  BCF    03.5
002F:  MOVWF  20
.................... while (led <= 0x20) 
....................             { 
0030:  MOVF   20,W
0031:  SUBLW  20
0032:  BTFSS  03.0
0033:  GOTO   049
....................      Output_b(led); 
0034:  MOVLW  C0
0035:  BSF    03.5
0036:  MOVWF  06
0037:  BCF    03.5
0038:  MOVF   20,W
0039:  MOVWF  06
....................      delay_ms (500); 
003A:  MOVLW  02
003B:  MOVWF  21
003C:  MOVLW  FA
003D:  MOVWF  22
003E:  CALL   004
003F:  DECFSZ 21,F
0040:  GOTO   03C
....................      Output_b(0x00); 
0041:  MOVLW  C0
0042:  BSF    03.5
0043:  MOVWF  06
0044:  BCF    03.5
0045:  CLRF   06
....................      delay_ms (0); 
....................      led=led*2; 
0046:  BCF    03.0
0047:  RLF    20,F
....................             } 
0048:  GOTO   030
.................... while (led > 0x01) 
....................         { 
0049:  MOVF   20,W
004A:  SUBLW  01
004B:  BTFSC  03.0
004C:  GOTO   062
....................      Output_b(led); 
004D:  MOVLW  C0
004E:  BSF    03.5
004F:  MOVWF  06
0050:  BCF    03.5
0051:  MOVF   20,W
0052:  MOVWF  06
....................      delay_ms (500); 
0053:  MOVLW  02
0054:  MOVWF  21
0055:  MOVLW  FA
0056:  MOVWF  22
0057:  CALL   004
0058:  DECFSZ 21,F
0059:  GOTO   055
....................      Output_b(0x00); 
005A:  MOVLW  C0
005B:  BSF    03.5
005C:  MOVWF  06
005D:  BCF    03.5
005E:  CLRF   06
....................      delay_ms (0); 
....................      led=led/2; 
005F:  BCF    03.0
0060:  RRF    20,F
....................         } 
0061:  GOTO   049
....................    } 
0062:  BSF    03.5
0063:  GOTO   02D
.................... } 
0064:  SLEEP

Configuration Fuses:
   Word  1: 3F31   XT NOWDT PUT NOBROWNOUT NOLVP NOCPD NOWRT NODEBUG NOPROTECT
