CCS PCM C Compiler, Version 3.238, 29294               19-mars-08 12:54

               Filename: Y:\Systemes\Portail_MB2000\programmation_pcw\portail_programmation_clickstar\programmation_clickstar.lst

               ROM used: 195 words (2%)
                         Largest free fragment is 2048
               RAM used: 14 (8%) at main() level
                         15 (9%) worst case
               Stack:    1 locations

*
0000:  NOP
0001:  MOVLW  00
0002:  MOVWF  0A
0003:  GOTO   044
.................... #include <16F876A.h> 
.................... //////// Standard Header file for the PIC16F876A device //////////////// 
.................... #device PIC16F876A 
.................... #list 
....................  
.................... #device ICD=TRUE 
.................... #device adc=8 
....................  
.................... #FUSES NOWDT                 	//No Watch Dog Timer 
.................... #FUSES XT                    	//Crystal osc <= 4mhz 
.................... #FUSES PUT                   	//Power Up Timer 
.................... #FUSES NOPROTECT             	//Code not protected from reading 
.................... #FUSES DEBUG                 	//Debug mode for use with ICD 
.................... #FUSES BROWNOUT              	//Reset when brownout detected 
.................... #FUSES NOLVP                 	//No low voltage prgming, B3(PIC16) or B5(PIC18) used for I/O 
.................... #FUSES NOCPD                 	//No EE protection 
.................... #FUSES NOWRT                 	//Program memory not write protected 
....................  
.................... #use delay(clock=3276800) 
*
002E:  MOVLW  29
002F:  MOVWF  04
0030:  MOVF   00,W
0031:  BTFSC  03.2
0032:  GOTO   041
0033:  MOVLW  01
0034:  MOVWF  78
0035:  CLRF   77
0036:  DECFSZ 77,F
0037:  GOTO   036
0038:  DECFSZ 78,F
0039:  GOTO   035
003A:  MOVLW  0E
003B:  MOVWF  77
003C:  DECFSZ 77,F
003D:  GOTO   03C
003E:  NOP
003F:  DECFSZ 00,F
0040:  GOTO   033
0041:  BCF    0A.3
0042:  BCF    0A.4
0043:  GOTO   0BF (RETURN)
.................... #use rs232(baud=9600,parity=N,xmit=PIN_C6,rcv=PIN_C7,bits=8) 
....................  
....................  
.................... int16 code,masque,valeur_bit; 
.................... int8 i,j; 
....................  
.................... void emis_0(); 
.................... void emis_1(); 
....................  
.................... void main() 
0044:  CLRF   04
0045:  MOVLW  1F
0046:  ANDWF  03,F
0047:  MOVLW  14
0048:  BSF    03.5
0049:  MOVWF  19
004A:  MOVLW  26
004B:  MOVWF  18
004C:  MOVLW  90
004D:  BCF    03.5
004E:  MOVWF  18
004F:  BSF    03.5
0050:  BSF    1F.0
0051:  BSF    1F.1
0052:  BSF    1F.2
0053:  BCF    1F.3
0054:  MOVLW  07
0055:  MOVWF  1C
.................... { 
....................  
....................    port_b_pullups(TRUE); 
*
0059:  BSF    03.5
005A:  BCF    01.7
....................    setup_adc_ports(NO_ANALOGS); 
005B:  BSF    1F.0
005C:  BSF    1F.1
005D:  BSF    1F.2
005E:  BCF    1F.3
....................    setup_adc(ADC_OFF); 
005F:  BCF    03.5
0060:  BCF    1F.0
....................    setup_spi(FALSE); 
*
0056:  MOVLW  FF
0057:  BCF    03.5
0058:  MOVWF  28
*
0061:  BCF    14.5
0062:  BCF    28.5
0063:  MOVF   28,W
0064:  BSF    03.5
0065:  MOVWF  07
0066:  BCF    03.5
0067:  BSF    28.4
0068:  MOVF   28,W
0069:  BSF    03.5
006A:  MOVWF  07
006B:  BCF    03.5
006C:  BCF    28.3
006D:  MOVF   28,W
006E:  BSF    03.5
006F:  MOVWF  07
0070:  MOVLW  00
0071:  BCF    03.5
0072:  MOVWF  14
0073:  BSF    03.5
0074:  MOVWF  14
....................    setup_timer_0(RTCC_INTERNAL|RTCC_DIV_8); 
0075:  MOVF   01,W
0076:  ANDLW  C0
0077:  IORLW  02
0078:  MOVWF  01
....................    setup_timer_1(T1_DISABLED); 
0079:  BCF    03.5
007A:  CLRF   10
....................    setup_timer_2(T2_DISABLED,0,1); 
007B:  MOVLW  00
007C:  MOVWF  78
007D:  MOVWF  12
007E:  MOVLW  00
007F:  BSF    03.5
0080:  MOVWF  12
....................    setup_comparator(NC_NC_NC_NC); 
0081:  MOVLW  07
0082:  MOVWF  1C
0083:  MOVF   05,W
0084:  MOVLW  02
0085:  MOVWF  77
0086:  DECFSZ 77,F
0087:  GOTO   086
0088:  NOP
0089:  MOVF   1C,W
008A:  BCF    03.5
008B:  BCF    0D.6
....................    setup_vref(VREF_LOW|-2); 
008C:  MOVLW  FE
008D:  BSF    03.5
008E:  MOVWF  1D
008F:  BSF    05.2
....................  
....................    code=0x0ff1;   // 0 1111 1111 0001 
0090:  MOVLW  0F
0091:  BCF    03.5
0092:  MOVWF  21
0093:  MOVLW  F1
0094:  MOVWF  20
....................    output_low(PIN_B0); 
0095:  BSF    03.5
0096:  BCF    06.0
0097:  BCF    03.5
0098:  BCF    06.0
....................  
....................     
....................     
....................       for(j=0;j<200;j++) 
0099:  CLRF   27
009A:  MOVF   27,W
009B:  SUBLW  C7
009C:  BTFSS  03.0
009D:  GOTO   0C1
....................  
....................       { 
....................          masque=0x1000; 
009E:  MOVLW  10
009F:  MOVWF  23
00A0:  CLRF   22
....................  
....................          for(i=0;i<13;i++) 
00A1:  CLRF   26
00A2:  MOVF   26,W
00A3:  SUBLW  0C
00A4:  BTFSS  03.0
00A5:  GOTO   0B8
....................          { 
....................             valeur_bit=code&masque; 
00A6:  MOVF   20,W
00A7:  ANDWF  22,W
00A8:  MOVWF  24
00A9:  MOVF   21,W
00AA:  ANDWF  23,W
00AB:  MOVWF  25
....................             if(valeur_bit==0) emis_1(); 
00AC:  MOVF   24,F
00AD:  BTFSS  03.2
00AE:  GOTO   0B2
00AF:  MOVF   25,F
00B0:  BTFSC  03.2
00B1:  GOTO   004
....................                      else emis_0(); 
00B2:  GOTO   019
....................             masque=masque>>1; 
00B3:  BCF    03.0
00B4:  RRF    23,F
00B5:  RRF    22,F
....................          } 
00B6:  INCF   26,F
00B7:  GOTO   0A2
....................          output_low(PIN_B0); 
00B8:  BSF    03.5
00B9:  BCF    06.0
00BA:  BCF    03.5
00BB:  BCF    06.0
....................          delay_ms(20); 
00BC:  MOVLW  14
00BD:  MOVWF  29
00BE:  GOTO   02E
....................  
....................       } 
00BF:  INCF   27,F
00C0:  GOTO   09A
....................       while(1); 
00C1:  GOTO   0C1
....................     
....................  
.................... } 
....................  
....................  
.................... void emis_0() 
.................... { 
00C2:  GOTO   0C2
.................... output_low(PIN_B0); 
*
0019:  BSF    03.5
001A:  BCF    06.0
001B:  BCF    03.5
001C:  BCF    06.0
.................... set_timer0(0); 
001D:  CLRF   01
.................... while(get_timer0()<69); 
001E:  MOVF   01,W
001F:  SUBLW  44
0020:  BTFSC  03.0
0021:  GOTO   01E
.................... output_high(PIN_B0); 
0022:  BSF    03.5
0023:  BCF    06.0
0024:  BCF    03.5
0025:  BSF    06.0
.................... set_timer0(0); 
0026:  CLRF   01
.................... while(get_timer0()<135); 
0027:  MOVF   01,W
0028:  SUBLW  86
0029:  BTFSC  03.0
002A:  GOTO   027
.................... } 
002B:  BCF    0A.3
002C:  BCF    0A.4
002D:  GOTO   0B3 (RETURN)
....................  
....................  
.................... void emis_1() 
.................... { 
.................... output_low(PIN_B0); 
*
0004:  BSF    03.5
0005:  BCF    06.0
0006:  BCF    03.5
0007:  BCF    06.0
.................... set_timer0(0); 
0008:  CLRF   01
.................... while(get_timer0()<139); 
0009:  MOVF   01,W
000A:  SUBLW  8A
000B:  BTFSC  03.0
000C:  GOTO   009
.................... output_high(PIN_B0); 
000D:  BSF    03.5
000E:  BCF    06.0
000F:  BCF    03.5
0010:  BSF    06.0
.................... set_timer0(0); 
0011:  CLRF   01
.................... while(get_timer0()<65); 
0012:  MOVF   01,W
0013:  SUBLW  40
0014:  BTFSC  03.0
0015:  GOTO   012
.................... } 
0016:  BCF    0A.3
0017:  BCF    0A.4
0018:  GOTO   0B3 (RETURN)
....................  
....................  
....................  
....................  
....................  
....................  

Configuration Fuses:
   Word  1: 3731   XT NOWDT PUT DEBUG NOPROTECT NOBROWNOUT NOLVP NOCPD NOWRT
